; Function Attrs: nofree nosync nounwind memory(readwrite, inaccessiblemem: none) uwtable
define i32 @Proof_MarkUsedRec(ptr noundef readonly captures(none) %0, ptr noundef readonly captures(none) %1) local_unnamed_addr #5 {
  %3 = getelementptr i8, ptr %1, i64 4
  %.val12 = load i32, ptr %3, align 4, !tbaa !14
  %4 = icmp sgt i32 %.val12, 0
  br i1 %4, label %.lr.ph, label %.critedge

.lr.ph:                                           ; preds = %2
  %5 = getelementptr i8, ptr %1, i64 8
  br label %6

6:                                                ; preds = %.lr.ph, %13
  %.val16 = phi i32 [ %.val12, %.lr.ph ], [ %.val, %13 ]
  %indvars.iv = phi i64 [ 0, %.lr.ph ], [ %indvars.iv.next, %13 ]
  %.014 = phi i32 [ 0, %.lr.ph ], [ %.1, %13 ]
  %.val11 = load ptr, ptr %5, align 8, !tbaa !17
  %7 = getelementptr inbounds nuw i32, ptr %.val11, i64 %indvars.iv
  %8 = load i32, ptr %7, align 4, !tbaa !18
  %9 = icmp sgt i32 %8, -1
  br i1 %9, label %10, label %13

10:                                               ; preds = %6
  %11 = tail call i32 @Proof_MarkUsed_rec(ptr noundef %0, i32 noundef %8)
  %12 = add nsw i32 %11, %.014
  %.val.pre = load i32, ptr %3, align 4, !tbaa !14
  br label %13

13:                                               ; preds = %6, %10
  %.val = phi i32 [ %.val.pre, %10 ], [ %.val16, %6 ]
  %.1 = phi i32 [ %12, %10 ], [ %.014, %6 ]
  %indvars.iv.next = add nuw nsw i64 %indvars.iv, 1
  %14 = sext i32 %.val to i64
  %15 = icmp slt i64 %indvars.iv.next, %14
  br i1 %15, label %6, label %.critedge, !llvm.loop !30

.critedge:                                        ; preds = %13, %2
  %.0.lcssa = phi i32 [ 0, %2 ], [ %.1, %13 ]
  ret i32 %.0.lcssa
}